target datalayout = "e-m:e-p270:32:32-p271:32:32-p272:64:64-i64:64-i128:128-f80:128-n8:16:32:64-S128"
target triple = "x86_64-pc-linux-gnu"

%struct.RelFileLocator = type { i32, i32, i32 }
%struct.SharedInvalSmgrMsg = type { i8, i8, i16, %struct.RelFileLocator }
%struct.SharedInvalRelmapMsg = type { i8, i32 }
%union.SharedInvalidationMessage = type { %struct.SharedInvalSmgrMsg }

; Function Attrs: nounwind uwtable
define dso_local void @CacheInvalidateRelmap(i32 noundef %0) #0 {
  %2 = alloca i32, align 4
  %3 = alloca %union.SharedInvalidationMessage, align 4
  store i32 %0, ptr %2, align 4
  call void @llvm.lifetime.start.p0(i64 16, ptr %3) #7
  %4 = getelementptr inbounds nuw %struct.SharedInvalRelmapMsg, ptr %3, i32 0, i32 0
  store i8 -4, ptr %4, align 4
  %5 = load i32, ptr %2, align 4
  %6 = getelementptr inbounds nuw %struct.SharedInvalRelmapMsg, ptr %3, i32 0, i32 1
  store i32 %5, ptr %6, align 4
  br label %7

7:                                                ; preds = %1
  br label %8

8:                                                ; preds = %7
  br label %9

9:                                                ; preds = %8
  call void @SendSharedInvalidMessages(ptr noundef %3, i32 noundef 1)
  call void @llvm.lifetime.end.p0(i64 16, ptr %3) #7
  ret void
}