; Function Attrs: nounwind uwtable
define dso_local void @CacheInvalidateRelmap(i32 noundef %0) local_unnamed_addr #0 {
  %2 = alloca %union.SharedInvalidationMessage, align 4
  call void @llvm.lifetime.start.p0(i64 16, ptr nonnull %2) #7
  store i8 -4, ptr %2, align 4
  %3 = getelementptr inbounds nuw i8, ptr %2, i64 4
  store i32 %0, ptr %3, align 4
  call void @SendSharedInvalidMessages(ptr noundef nonnull %2, i32 noundef 1) #7
  call void @llvm.lifetime.end.p0(i64 16, ptr nonnull %2) #7
  ret void
}